; Function Attrs: mustprogress nofree norecurse nosync nounwind willreturn memory(argmem: read) uwtable
define i64 @POOL_sizeof(ptr noundef readonly captures(address_is_null) %0) local_unnamed_addr #4 {
  %2 = icmp eq ptr %0, null
  br i1 %2, label %12, label %3

3:                                                ; preds = %1
  %4 = getelementptr inbounds nuw i8, ptr %0, i64 72
  %5 = load i64, ptr %4, align 8, !tbaa !8
  %6 = shl i64 %5, 4
  %7 = add i64 %6, 240
  %8 = getelementptr inbounds nuw i8, ptr %0, i64 32
  %9 = load i64, ptr %8, align 8, !tbaa !19
  %10 = shl i64 %9, 3
  %11 = add i64 %7, %10
  br label %12

12:                                               ; preds = %1, %3
  %.0 = phi i64 [ %11, %3 ], [ 0, %1 ]
  ret i64 %.0
}